; ModuleID = 'source-C-CXX/34/18.c'
source_filename = "source-C-CXX/34/18.c"
target datalayout = "e-m:e-p270:32:32-p271:32:32-p272:64:64-i64:64-f80:128-n8:16:32:64-S128"
target triple = "x86_64-pc-linux-gnu"

@.str = private unnamed_addr constant [6 x i8] c"%d,%d\00", align 1
@.str.1 = private unnamed_addr constant [3 x i8] c"%d\00", align 1
@.str.2 = private unnamed_addr constant [7 x i8] c"%d+%d\0A\00", align 1
@.str.3 = private unnamed_addr constant [3 x i8] c"No\00", align 1

; Function Attrs: nofree nounwind sspstrong uwtable
define dso_local void @main() local_unnamed_addr #0 {
  %1 = alloca i32, align 4
  %2 = alloca i32, align 4
  %3 = alloca [8 x [8 x i32]], align 16
  %4 = bitcast i32* %1 to i8*
  call void @llvm.lifetime.start.p0i8(i64 4, i8* nonnull %4) #3
  %5 = bitcast i32* %2 to i8*
  call void @llvm.lifetime.start.p0i8(i64 4, i8* nonnull %5) #3
  %6 = bitcast [8 x [8 x i32]]* %3 to i8*
  call void @llvm.lifetime.start.p0i8(i64 256, i8* nonnull %6) #3
  %7 = call i32 (i8*, ...) @__isoc99_scanf(i8* getelementptr inbounds ([6 x i8], [6 x i8]* @.str, i64 0, i64 0), i32* nonnull %1, i32* nonnull %2)
  %8 = load i32, i32* %1, align 4, !tbaa !5
  %9 = icmp sgt i32 %8, 0
  br i1 %9, label %10, label %144

10:                                               ; preds = %0
  %11 = load i32, i32* %2, align 4, !tbaa !5
  %12 = icmp sgt i32 %11, 0
  br i1 %12, label %13, label %20

13:                                               ; preds = %10, %32
  %14 = phi i32 [ %33, %32 ], [ %8, %10 ]
  %15 = phi i32 [ %34, %32 ], [ %11, %10 ]
  %16 = phi i64 [ %35, %32 ], [ 0, %10 ]
  %17 = icmp sgt i32 %15, 0
  br i1 %17, label %22, label %32

18:                                               ; preds = %32
  %19 = icmp sgt i32 %33, 0
  br i1 %19, label %20, label %144

20:                                               ; preds = %10, %18
  %21 = phi i32 [ %8, %10 ], [ %33, %18 ]
  br label %38

22:                                               ; preds = %13, %22
  %23 = phi i64 [ %26, %22 ], [ 0, %13 ]
  %24 = getelementptr inbounds [8 x [8 x i32]], [8 x [8 x i32]]* %3, i64 0, i64 %16, i64 %23
  %25 = call i32 (i8*, ...) @__isoc99_scanf(i8* getelementptr inbounds ([3 x i8], [3 x i8]* @.str.1, i64 0, i64 0), i32* nonnull %24)
  %26 = add nuw nsw i64 %23, 1
  %27 = load i32, i32* %2, align 4, !tbaa !5
  %28 = sext i32 %27 to i64
  %29 = icmp slt i64 %26, %28
  br i1 %29, label %22, label %30, !llvm.loop !9

30:                                               ; preds = %22
  %31 = load i32, i32* %1, align 4, !tbaa !5
  br label %32

32:                                               ; preds = %30, %13
  %33 = phi i32 [ %31, %30 ], [ %14, %13 ]
  %34 = phi i32 [ %27, %30 ], [ %15, %13 ]
  %35 = add nuw nsw i64 %16, 1
  %36 = sext i32 %33 to i64
  %37 = icmp slt i64 %35, %36
  br i1 %37, label %13, label %18, !llvm.loop !11

38:                                               ; preds = %20, %136
  %39 = phi i32 [ %137, %136 ], [ %21, %20 ]
  %40 = phi i64 [ %139, %136 ], [ 0, %20 ]
  %41 = phi i32 [ %138, %136 ], [ 0, %20 ]
  %42 = getelementptr inbounds [8 x [8 x i32]], [8 x [8 x i32]]* %3, i64 0, i64 %40, i64 0
  %43 = load i32, i32* %42, align 16, !tbaa !5
  %44 = load i32, i32* %2, align 4, !tbaa !5
  %45 = icmp sgt i32 %44, 0
  br i1 %45, label %46, label %77

46:                                               ; preds = %38
  %47 = zext i32 %44 to i64
  %48 = icmp eq i32 %44, 1
  br i1 %48, label %77, label %49, !llvm.loop !13

49:                                               ; preds = %46
  %50 = add nsw i64 %47, -1
  %51 = add nsw i64 %47, -2
  %52 = and i64 %50, 3
  %53 = icmp ult i64 %51, 3
  br i1 %53, label %56, label %54

54:                                               ; preds = %49
  %55 = and i64 %50, -4
  br label %84

56:                                               ; preds = %84, %49
  %57 = phi i32 [ undef, %49 ], [ %113, %84 ]
  %58 = phi i32 [ undef, %49 ], [ %115, %84 ]
  %59 = phi i64 [ 1, %49 ], [ %116, %84 ]
  %60 = phi i32 [ 0, %49 ], [ %115, %84 ]
  %61 = phi i32 [ %43, %49 ], [ %113, %84 ]
  %62 = icmp eq i64 %52, 0
  br i1 %62, label %77, label %63

63:                                               ; preds = %56, %63
  %64 = phi i64 [ %74, %63 ], [ %59, %56 ]
  %65 = phi i32 [ %73, %63 ], [ %60, %56 ]
  %66 = phi i32 [ %71, %63 ], [ %61, %56 ]
  %67 = phi i64 [ %75, %63 ], [ %52, %56 ]
  %68 = getelementptr inbounds [8 x [8 x i32]], [8 x [8 x i32]]* %3, i64 0, i64 %40, i64 %64
  %69 = load i32, i32* %68, align 4, !tbaa !5
  %70 = icmp slt i32 %66, %69
  %71 = select i1 %70, i32 %69, i32 %66
  %72 = trunc i64 %64 to i32
  %73 = select i1 %70, i32 %72, i32 %65
  %74 = add nuw nsw i64 %64, 1
  %75 = add i64 %67, -1
  %76 = icmp eq i64 %75, 0
  br i1 %76, label %77, label %63, !llvm.loop !14

77:                                               ; preds = %56, %63, %46, %38
  %78 = phi i32 [ %43, %38 ], [ %43, %46 ], [ %57, %56 ], [ %71, %63 ]
  %79 = phi i32 [ 0, %38 ], [ 0, %46 ], [ %58, %56 ], [ %73, %63 ]
  %80 = sext i32 %79 to i64
  %81 = icmp sgt i32 %39, 0
  br i1 %81, label %82, label %129

82:                                               ; preds = %77
  %83 = zext i32 %39 to i64
  br label %119

84:                                               ; preds = %84, %54
  %85 = phi i64 [ 1, %54 ], [ %116, %84 ]
  %86 = phi i32 [ 0, %54 ], [ %115, %84 ]
  %87 = phi i32 [ %43, %54 ], [ %113, %84 ]
  %88 = phi i64 [ %55, %54 ], [ %117, %84 ]
  %89 = getelementptr inbounds [8 x [8 x i32]], [8 x [8 x i32]]* %3, i64 0, i64 %40, i64 %85
  %90 = load i32, i32* %89, align 4, !tbaa !5
  %91 = icmp slt i32 %87, %90
  %92 = select i1 %91, i32 %90, i32 %87
  %93 = trunc i64 %85 to i32
  %94 = select i1 %91, i32 %93, i32 %86
  %95 = add nuw nsw i64 %85, 1
  %96 = getelementptr inbounds [8 x [8 x i32]], [8 x [8 x i32]]* %3, i64 0, i64 %40, i64 %95
  %97 = load i32, i32* %96, align 4, !tbaa !5
  %98 = icmp slt i32 %92, %97
  %99 = select i1 %98, i32 %97, i32 %92
  %100 = trunc i64 %95 to i32
  %101 = select i1 %98, i32 %100, i32 %94
  %102 = add nuw nsw i64 %85, 2
  %103 = getelementptr inbounds [8 x [8 x i32]], [8 x [8 x i32]]* %3, i64 0, i64 %40, i64 %102
  %104 = load i32, i32* %103, align 4, !tbaa !5
  %105 = icmp slt i32 %99, %104
  %106 = select i1 %105, i32 %104, i32 %99
  %107 = trunc i64 %102 to i32
  %108 = select i1 %105, i32 %107, i32 %101
  %109 = add nuw nsw i64 %85, 3
  %110 = getelementptr inbounds [8 x [8 x i32]], [8 x [8 x i32]]* %3, i64 0, i64 %40, i64 %109
  %111 = load i32, i32* %110, align 4, !tbaa !5
  %112 = icmp slt i32 %106, %111
  %113 = select i1 %112, i32 %111, i32 %106
  %114 = trunc i64 %109 to i32
  %115 = select i1 %112, i32 %114, i32 %108
  %116 = add nuw nsw i64 %85, 4
  %117 = add i64 %88, -4
  %118 = icmp eq i64 %117, 0
  br i1 %118, label %56, label %84, !llvm.loop !13

119:                                              ; preds = %82, %124
  %120 = phi i64 [ 0, %82 ], [ %125, %124 ]
  %121 = getelementptr inbounds [8 x [8 x i32]], [8 x [8 x i32]]* %3, i64 0, i64 %120, i64 %80
  %122 = load i32, i32* %121, align 4, !tbaa !5
  %123 = icmp sgt i32 %78, %122
  br i1 %123, label %127, label %124

124:                                              ; preds = %119
  %125 = add nuw nsw i64 %120, 1
  %126 = icmp eq i64 %125, %83
  br i1 %126, label %132, label %119, !llvm.loop !16

127:                                              ; preds = %119
  %128 = trunc i64 %120 to i32
  br label %129

129:                                              ; preds = %127, %77
  %130 = phi i32 [ 0, %77 ], [ %128, %127 ]
  %131 = icmp eq i32 %130, %39
  br i1 %131, label %132, label %136

132:                                              ; preds = %124, %129
  %133 = trunc i64 %40 to i32
  %134 = call i32 (i8*, ...) @printf(i8* nonnull dereferenceable(1) getelementptr inbounds ([7 x i8], [7 x i8]* @.str.2, i64 0, i64 0), i32 %133, i32 %79)
  %135 = load i32, i32* %1, align 4, !tbaa !5
  br label %136

136:                                              ; preds = %129, %132
  %137 = phi i32 [ %135, %132 ], [ %39, %129 ]
  %138 = phi i32 [ 1, %132 ], [ %41, %129 ]
  %139 = add nuw nsw i64 %40, 1
  %140 = sext i32 %137 to i64
  %141 = icmp slt i64 %139, %140
  br i1 %141, label %38, label %142, !llvm.loop !17

142:                                              ; preds = %136
  %143 = icmp eq i32 %138, 0
  br i1 %143, label %144, label %146

144:                                              ; preds = %0, %18, %142
  %145 = call i32 (i8*, ...) @printf(i8* nonnull dereferenceable(1) getelementptr inbounds ([3 x i8], [3 x i8]* @.str.3, i64 0, i64 0))
  br label %146

146:                                              ; preds = %144, %142
  call void @llvm.lifetime.end.p0i8(i64 256, i8* nonnull %6) #3
  call void @llvm.lifetime.end.p0i8(i64 4, i8* nonnull %5) #3
  call void @llvm.lifetime.end.p0i8(i64 4, i8* nonnull %4) #3
  ret void
}

; Function Attrs: argmemonly mustprogress nofree nosync nounwind willreturn
declare void @llvm.lifetime.start.p0i8(i64 immarg, i8* nocapture) #1

; Function Attrs: nofree nounwind
declare noundef i32 @__isoc99_scanf(i8* nocapture noundef readonly, ...) local_unnamed_addr #2

; Function Attrs: nofree nounwind
declare noundef i32 @printf(i8* nocapture noundef readonly, ...) local_unnamed_addr #2

; Function Attrs: argmemonly mustprogress nofree nosync nounwind willreturn
declare void @llvm.lifetime.end.p0i8(i64 immarg, i8* nocapture) #1


!llvm.module.flags = !{!0, !1, !2, !3}
!llvm.ident = !{!4}

!0 = !{i32 1, !"wchar_size", i32 4}
!1 = !{i32 7, !"PIC Level", i32 2}
!2 = !{i32 7, !"PIE Level", i32 2}
!3 = !{i32 7, !"uwtable", i32 1}
!4 = !{!"clang version 13.0.0"}
!5 = !{!6, !6, i64 0}
!6 = !{!"int", !7, i64 0}
!7 = !{!"omnipotent char", !8, i64 0}
!8 = !{!"Simple C/C++ TBAA"}
!9 = distinct !{!9, !10}
!10 = !{!"llvm.loop.mustprogress"}
!11 = distinct !{!11, !10, !12}
!12 = !{!"llvm.loop.unswitch.partial.disable"}
!13 = distinct !{!13, !10}
!14 = distinct !{!14, !15}
!15 = !{!"llvm.loop.unroll.disable"}
!16 = distinct !{!16, !10}
!17 = distinct !{!17, !10}
